target datalayout = "e-m:e-p270:32:32-p271:32:32-p272:64:64-i64:64-i128:128-f80:128-n8:16:32:64-S128"
target triple = "x86_64-pc-linux-gnu"

%struct.pm_integer_t = type { i64, ptr, i32, i8 }

; Function Attrs: nounwind sspstrong uwtable
define hidden i32 @pm_integer_compare(ptr noundef %0, ptr noundef %1) #0 {
  %3 = alloca i32, align 4
  %4 = alloca ptr, align 8
  %5 = alloca ptr, align 8
  %6 = alloca i32, align 4
  %7 = alloca i32, align 4
  %8 = alloca i64, align 8
  %9 = alloca i64, align 8
  %10 = alloca i32, align 4
  %11 = alloca i32, align 4
  store ptr %0, ptr %4, align 8, !tbaa !7
  store ptr %1, ptr %5, align 8, !tbaa !7
  %12 = load ptr, ptr %4, align 8, !tbaa !7
  %13 = getelementptr inbounds nuw %struct.pm_integer_t, ptr %12, i32 0, i32 3
  %14 = load i8, ptr %13, align 4, !tbaa !26, !range !27, !noundef !28
  %15 = trunc i8 %14 to i1
  %16 = zext i1 %15 to i32
  %17 = load ptr, ptr %5, align 8, !tbaa !7
  %18 = getelementptr inbounds nuw %struct.pm_integer_t, ptr %17, i32 0, i32 3
  %19 = load i8, ptr %18, align 4, !tbaa !26, !range !27, !noundef !28
  %20 = trunc i8 %19 to i1
  %21 = zext i1 %20 to i32
  %22 = icmp ne i32 %16, %21
  br i1 %22, label %23, label %29

23:                                               ; preds = %2
  %24 = load ptr, ptr %4, align 8, !tbaa !7
  %25 = getelementptr inbounds nuw %struct.pm_integer_t, ptr %24, i32 0, i32 3
  %26 = load i8, ptr %25, align 4, !tbaa !26, !range !27, !noundef !28
  %27 = trunc i8 %26 to i1
  %28 = select i1 %27, i32 -1, i32 1
  store i32 %28, ptr %3, align 4
  br label %150

29:                                               ; preds = %2
  call void @llvm.lifetime.start.p0(i64 4, ptr %6) #10
  %30 = load ptr, ptr %4, align 8, !tbaa !7
  %31 = getelementptr inbounds nuw %struct.pm_integer_t, ptr %30, i32 0, i32 3
  %32 = load i8, ptr %31, align 4, !tbaa !26, !range !27, !noundef !28
  %33 = trunc i8 %32 to i1
  %34 = select i1 %33, i32 -1, i32 1
  store i32 %34, ptr %6, align 4, !tbaa !11
  %35 = load ptr, ptr %4, align 8, !tbaa !7
  %36 = getelementptr inbounds nuw %struct.pm_integer_t, ptr %35, i32 0, i32 1
  %37 = load ptr, ptr %36, align 8, !tbaa !29
  %38 = icmp eq ptr %37, null
  br i1 %38, label %39, label %67

39:                                               ; preds = %29
  %40 = load ptr, ptr %5, align 8, !tbaa !7
  %41 = getelementptr inbounds nuw %struct.pm_integer_t, ptr %40, i32 0, i32 1
  %42 = load ptr, ptr %41, align 8, !tbaa !29
  %43 = icmp eq ptr %42, null
  br i1 %43, label %44, label %67

44:                                               ; preds = %39
  %45 = load ptr, ptr %4, align 8, !tbaa !7
  %46 = getelementptr inbounds nuw %struct.pm_integer_t, ptr %45, i32 0, i32 2
  %47 = load i32, ptr %46, align 8, !tbaa !21
  %48 = load ptr, ptr %5, align 8, !tbaa !7
  %49 = getelementptr inbounds nuw %struct.pm_integer_t, ptr %48, i32 0, i32 2
  %50 = load i32, ptr %49, align 8, !tbaa !21
  %51 = icmp ult i32 %47, %50
  br i1 %51, label %52, label %55

52:                                               ; preds = %44
  %53 = load i32, ptr %6, align 4, !tbaa !11
  %54 = mul i32 -1, %53
  store i32 %54, ptr %3, align 4
  store i32 1, ptr %7, align 4
  br label %149

55:                                               ; preds = %44
  %56 = load ptr, ptr %4, align 8, !tbaa !7
  %57 = getelementptr inbounds nuw %struct.pm_integer_t, ptr %56, i32 0, i32 2
  %58 = load i32, ptr %57, align 8, !tbaa !21
  %59 = load ptr, ptr %5, align 8, !tbaa !7
  %60 = getelementptr inbounds nuw %struct.pm_integer_t, ptr %59, i32 0, i32 2
  %61 = load i32, ptr %60, align 8, !tbaa !21
  %62 = icmp ugt i32 %58, %61
  br i1 %62, label %63, label %66

63:                                               ; preds = %55
  %64 = load i32, ptr %6, align 4, !tbaa !11
  %65 = mul i32 1, %64
  store i32 %65, ptr %3, align 4
  store i32 1, ptr %7, align 4
  br label %149

66:                                               ; preds = %55
  store i32 0, ptr %3, align 4
  store i32 1, ptr %7, align 4
  br label %149

67:                                               ; preds = %39, %29
  %68 = load ptr, ptr %4, align 8, !tbaa !7
  %69 = getelementptr inbounds nuw %struct.pm_integer_t, ptr %68, i32 0, i32 1
  %70 = load ptr, ptr %69, align 8, !tbaa !29
  %71 = icmp eq ptr %70, null
  br i1 %71, label %80, label %72

72:                                               ; preds = %67
  %73 = load ptr, ptr %4, align 8, !tbaa !7
  %74 = getelementptr inbounds nuw %struct.pm_integer_t, ptr %73, i32 0, i32 0
  %75 = load i64, ptr %74, align 8, !tbaa !30
  %76 = load ptr, ptr %5, align 8, !tbaa !7
  %77 = getelementptr inbounds nuw %struct.pm_integer_t, ptr %76, i32 0, i32 0
  %78 = load i64, ptr %77, align 8, !tbaa !30
  %79 = icmp ult i64 %75, %78
  br i1 %79, label %80, label %83

80:                                               ; preds = %72, %67
  %81 = load i32, ptr %6, align 4, !tbaa !11
  %82 = mul i32 -1, %81
  store i32 %82, ptr %3, align 4
  store i32 1, ptr %7, align 4
  br label %149

83:                                               ; preds = %72
  %84 = load ptr, ptr %5, align 8, !tbaa !7
  %85 = getelementptr inbounds nuw %struct.pm_integer_t, ptr %84, i32 0, i32 1
  %86 = load ptr, ptr %85, align 8, !tbaa !29
  %87 = icmp eq ptr %86, null
  br i1 %87, label %96, label %88

88:                                               ; preds = %83
  %89 = load ptr, ptr %4, align 8, !tbaa !7
  %90 = getelementptr inbounds nuw %struct.pm_integer_t, ptr %89, i32 0, i32 0
  %91 = load i64, ptr %90, align 8, !tbaa !30
  %92 = load ptr, ptr %5, align 8, !tbaa !7
  %93 = getelementptr inbounds nuw %struct.pm_integer_t, ptr %92, i32 0, i32 0
  %94 = load i64, ptr %93, align 8, !tbaa !30
  %95 = icmp ugt i64 %91, %94
  br i1 %95, label %96, label %99

96:                                               ; preds = %88, %83
  %97 = load i32, ptr %6, align 4, !tbaa !11
  %98 = mul i32 1, %97
  store i32 %98, ptr %3, align 4
  store i32 1, ptr %7, align 4
  br label %149

99:                                               ; preds = %88
  call void @llvm.lifetime.start.p0(i64 8, ptr %8) #10
  store i64 0, ptr %8, align 8, !tbaa !18
  br label %100

100:                                              ; preds = %143, %99
  %101 = load i64, ptr %8, align 8, !tbaa !18
  %102 = load ptr, ptr %4, align 8, !tbaa !7
  %103 = getelementptr inbounds nuw %struct.pm_integer_t, ptr %102, i32 0, i32 0
  %104 = load i64, ptr %103, align 8, !tbaa !30
  %105 = icmp ult i64 %101, %104
  br i1 %105, label %107, label %106

106:                                              ; preds = %100
  store i32 2, ptr %7, align 4
  br label %146

107:                                              ; preds = %100
  call void @llvm.lifetime.start.p0(i64 8, ptr %9) #10
  %108 = load ptr, ptr %4, align 8, !tbaa !7
  %109 = getelementptr inbounds nuw %struct.pm_integer_t, ptr %108, i32 0, i32 0
  %110 = load i64, ptr %109, align 8, !tbaa !30
  %111 = load i64, ptr %8, align 8, !tbaa !18
  %112 = sub i64 %110, %111
  %113 = sub i64 %112, 1
  store i64 %113, ptr %9, align 8, !tbaa !18
  call void @llvm.lifetime.start.p0(i64 4, ptr %10) #10
  %114 = load ptr, ptr %4, align 8, !tbaa !7
  %115 = getelementptr inbounds nuw %struct.pm_integer_t, ptr %114, i32 0, i32 1
  %116 = load ptr, ptr %115, align 8, !tbaa !29
  %117 = load i64, ptr %9, align 8, !tbaa !18
  %118 = getelementptr i32, ptr %116, i64 %117
  %119 = load i32, ptr %118, align 4, !tbaa !11
  store i32 %119, ptr %10, align 4, !tbaa !11
  call void @llvm.lifetime.start.p0(i64 4, ptr %11) #10
  %120 = load ptr, ptr %5, align 8, !tbaa !7
  %121 = getelementptr inbounds nuw %struct.pm_integer_t, ptr %120, i32 0, i32 1
  %122 = load ptr, ptr %121, align 8, !tbaa !29
  %123 = load i64, ptr %9, align 8, !tbaa !18
  %124 = getelementptr i32, ptr %122, i64 %123
  %125 = load i32, ptr %124, align 4, !tbaa !11
  store i32 %125, ptr %11, align 4, !tbaa !11
  %126 = load i32, ptr %10, align 4, !tbaa !11
  %127 = load i32, ptr %11, align 4, !tbaa !11
  %128 = icmp ult i32 %126, %127
  br i1 %128, label %129, label %132

129:                                              ; preds = %107
  %130 = load i32, ptr %6, align 4, !tbaa !11
  %131 = mul i32 -1, %130
  store i32 %131, ptr %3, align 4
  store i32 1, ptr %7, align 4
  br label %140

132:                                              ; preds = %107
  %133 = load i32, ptr %10, align 4, !tbaa !11
  %134 = load i32, ptr %11, align 4, !tbaa !11
  %135 = icmp ugt i32 %133, %134
  br i1 %135, label %136, label %139

136:                                              ; preds = %132
  %137 = load i32, ptr %6, align 4, !tbaa !11
  %138 = mul i32 1, %137
  store i32 %138, ptr %3, align 4
  store i32 1, ptr %7, align 4
  br label %140

139:                                              ; preds = %132
  store i32 0, ptr %7, align 4
  br label %140

140:                                              ; preds = %139, %136, %129
  call void @llvm.lifetime.end.p0(i64 4, ptr %11) #10
  call void @llvm.lifetime.end.p0(i64 4, ptr %10) #10
  call void @llvm.lifetime.end.p0(i64 8, ptr %9) #10
  %141 = load i32, ptr %7, align 4
  switch i32 %141, label %146 [
    i32 0, label %142
  ]

142:                                              ; preds = %140
  br label %143

143:                                              ; preds = %142
  %144 = load i64, ptr %8, align 8, !tbaa !18
  %145 = add i64 %144, 1
  store i64 %145, ptr %8, align 8, !tbaa !18
  br label %100, !llvm.loop !31

146:                                              ; preds = %140, %106
  call void @llvm.lifetime.end.p0(i64 8, ptr %8) #10
  %147 = load i32, ptr %7, align 4
  switch i32 %147, label %149 [
    i32 2, label %148
  ]

148:                                              ; preds = %146
  store i32 0, ptr %3, align 4
  store i32 1, ptr %7, align 4
  br label %149

149:                                              ; preds = %148, %146, %96, %80, %66, %63, %52
  call void @llvm.lifetime.end.p0(i64 4, ptr %6) #10
  br label %150

150:                                              ; preds = %149, %23
  %151 = load i32, ptr %3, align 4
  ret i32 %151
}