; Function Attrs: nofree norecurse nosync nounwind sspstrong memory(read, inaccessiblemem: none) uwtable
define hidden i32 @pm_integer_compare(ptr noundef readonly captures(none) %0, ptr noundef readonly captures(none) %1) local_unnamed_addr #2 {
  %3 = getelementptr inbounds nuw i8, ptr %0, i64 20
  %4 = load i8, ptr %3, align 4, !tbaa !31, !range !32, !noundef !33
  %5 = trunc nuw i8 %4 to i1
  %6 = getelementptr inbounds nuw i8, ptr %1, i64 20
  %7 = load i8, ptr %6, align 4, !tbaa !31, !range !32, !noundef !33
  %.not = icmp eq i8 %4, %7
  br i1 %.not, label %10, label %8

8:                                                ; preds = %2
  %9 = select i1 %5, i32 -1, i32 1
  br label %.thread

10:                                               ; preds = %2
  %.neg = select i1 %5, i32 1, i32 -1
  %11 = select i1 %5, i32 -1, i32 1
  %12 = getelementptr inbounds nuw i8, ptr %0, i64 8
  %13 = load ptr, ptr %12, align 8, !tbaa !22
  %14 = icmp eq ptr %13, null
  br i1 %14, label %15, label %27

15:                                               ; preds = %10
  %16 = getelementptr inbounds nuw i8, ptr %1, i64 8
  %17 = load ptr, ptr %16, align 8, !tbaa !22
  %18 = icmp eq ptr %17, null
  br i1 %18, label %19, label %.thread

19:                                               ; preds = %15
  %20 = getelementptr inbounds nuw i8, ptr %0, i64 16
  %21 = load i32, ptr %20, align 8, !tbaa !30
  %22 = getelementptr inbounds nuw i8, ptr %1, i64 16
  %23 = load i32, ptr %22, align 8, !tbaa !30
  %24 = icmp ult i32 %21, %23
  br i1 %24, label %.thread, label %25

25:                                               ; preds = %19
  %26 = icmp ugt i32 %21, %23
  %. = select i1 %26, i32 %11, i32 0
  br label %.thread

27:                                               ; preds = %10
  %28 = load i64, ptr %0, align 8, !tbaa !16
  %29 = load i64, ptr %1, align 8, !tbaa !16
  %30 = icmp ult i64 %28, %29
  br i1 %30, label %.thread, label %31

31:                                               ; preds = %27
  %32 = getelementptr inbounds nuw i8, ptr %1, i64 8
  %33 = load ptr, ptr %32, align 8, !tbaa !22
  %34 = icmp eq ptr %33, null
  %35 = icmp ugt i64 %28, %29
  %or.cond = or i1 %35, %34
  br i1 %or.cond, label %.thread, label %.preheader

.preheader:                                       ; preds = %31
  %.not4856.not = icmp eq i64 %28, 0
  br i1 %.not4856.not, label %.thread, label %.lr.ph

36:                                               ; preds = %45
  %37 = add nuw i64 %.04057, 1
  %exitcond.not = icmp eq i64 %37, %28
  br i1 %exitcond.not, label %.thread, label %.lr.ph, !llvm.loop !34

.lr.ph:                                           ; preds = %.preheader, %36
  %.04057 = phi i64 [ %37, %36 ], [ 0, %.preheader ]
  %38 = xor i64 %.04057, -1
  %39 = add i64 %28, %38
  %40 = getelementptr i32, ptr %13, i64 %39
  %41 = load i32, ptr %40, align 4, !tbaa !13
  %42 = getelementptr i32, ptr %33, i64 %39
  %43 = load i32, ptr %42, align 4, !tbaa !13
  %44 = icmp ult i32 %41, %43
  br i1 %44, label %.thread, label %45

45:                                               ; preds = %.lr.ph
  %.not55 = icmp ugt i32 %41, %43
  br i1 %.not55, label %.thread, label %36

.thread:                                          ; preds = %.lr.ph, %36, %45, %.preheader, %15, %19, %25, %27, %31, %8
  %.0 = phi i32 [ %9, %8 ], [ %.neg, %19 ], [ %., %25 ], [ %.neg, %27 ], [ %11, %31 ], [ %.neg, %15 ], [ 0, %.preheader ], [ %.neg, %.lr.ph ], [ 0, %36 ], [ %11, %45 ]
  ret i32 %.0
}